target datalayout = "e-m:e-p270:32:32-p271:32:32-p272:64:64-i64:64-i128:128-f80:128-n8:16:32:64-S128"
target triple = "x86_64-pc-linux-gnu"

%struct.SDL_WaylandPreferredData = type { i8 }

@.str.10 = private unnamed_addr constant [19 x i8] c"wp_fifo_manager_v1\00", align 1

; Function Attrs: nounwind uwtable
define internal void @wayland_preferred_check_handle_global(ptr noundef %0, ptr noundef %1, i32 noundef %2, ptr noundef %3, i32 noundef %4) #0 {
  %6 = alloca ptr, align 8
  %7 = alloca ptr, align 8
  %8 = alloca i32, align 4
  %9 = alloca ptr, align 8
  %10 = alloca i32, align 4
  %11 = alloca ptr, align 8
  store ptr %0, ptr %6, align 8
  store ptr %1, ptr %7, align 8
  store i32 %2, ptr %8, align 4
  store ptr %3, ptr %9, align 8
  store i32 %4, ptr %10, align 4
  call void @llvm.lifetime.start.p0(i64 8, ptr %11) #8
  %12 = load ptr, ptr %6, align 8
  store ptr %12, ptr %11, align 8
  %13 = load ptr, ptr %9, align 8
  %14 = call i32 @SDL_strcmp_REAL(ptr noundef %13, ptr noundef @.str.10)
  %15 = icmp eq i32 %14, 0
  br i1 %15, label %16, label %19

16:                                               ; preds = %5
  %17 = load ptr, ptr %11, align 8
  %18 = getelementptr inbounds nuw %struct.SDL_WaylandPreferredData, ptr %17, i32 0, i32 0
  store i8 1, ptr %18, align 1
  br label %19

19:                                               ; preds = %16, %5
  call void @llvm.lifetime.end.p0(i64 8, ptr %11) #8
  ret void
}