; Function Attrs: nounwind uwtable
define internal void @wayland_preferred_check_handle_global(ptr noundef writeonly captures(none) %0, ptr readnone captures(none) %1, i32 %2, ptr noundef %3, i32 %4) #0 {
  %6 = tail call i32 @SDL_strcmp_REAL(ptr noundef %3, ptr noundef nonnull @.str.10) #12
  %7 = icmp eq i32 %6, 0
  br i1 %7, label %8, label %9

8:                                                ; preds = %5
  store i8 1, ptr %0, align 1
  br label %9

9:                                                ; preds = %8, %5
  ret void
}